target datalayout = "e-m:e-p270:32:32-p271:32:32-p272:64:64-i64:64-i128:128-f80:128-n8:16:32:64-S128"
target triple = "x86_64-pc-linux-gnu"

%struct.AVChannelLayout = type { i32, i32, %union.anon.1, ptr }
%union.anon.1 = type { i64 }
%struct.ShowCQTContext = type { ptr, ptr, ptr, ptr, i32, i32, i32, i32, %struct.AVRational, i32, i32, i32, i64, ptr, ptr, ptr, ptr, ptr, ptr, ptr, ptr, ptr, i32, i32, i32, i32, ptr, ptr, ptr, ptr, ptr, [3 x [3 x float]], [6 x float], ptr, ptr, ptr, ptr, ptr, ptr, i64, i64, i64, i64, i64, i64, i64, i64, i32, i32, %struct.AVRational, i32, i32, i32, i32, ptr, ptr, float, float, float, double, double, double, double, float, ptr, i32, i32, ptr, ptr, ptr, ptr, i32, i32, ptr }
%struct.AVRational = type { i32, i32 }
%struct.AVFrame = type { [8 x ptr], [8 x i32], ptr, i32, i32, i32, i32, i32, %struct.AVRational, i64, i64, %struct.AVRational, i32, ptr, i32, i32, [8 x ptr], ptr, i32, ptr, i32, i32, i32, i32, i32, i32, i32, i64, ptr, i32, ptr, ptr, i64, i64, i64, i64, ptr, %struct.AVChannelLayout, i64 }

; Function Attrs: nounwind uwtable
define internal i32 @convert_axis_pixel_format(i32 noundef %0) #1 {
  %2 = alloca i32, align 4
  store i32 %0, ptr %2, align 4, !tbaa !50
  %3 = load i32, ptr %2, align 4, !tbaa !50
  switch i32 %3, label %6 [
    i32 2, label %4
    i32 5, label %5
    i32 4, label %5
    i32 0, label %5
  ]

4:                                                ; preds = %1
  store i32 26, ptr %2, align 4, !tbaa !50
  br label %6

5:                                                ; preds = %1, %1, %1
  store i32 79, ptr %2, align 4, !tbaa !50
  br label %6

6:                                                ; preds = %1, %5, %4
  %7 = load i32, ptr %2, align 4, !tbaa !50
  ret i32 %7
}

; Function Attrs: nounwind uwtable
define internal i32 @init_axis_from_file(ptr noundef %0) #1 {
  %2 = alloca i32, align 4
  %3 = alloca ptr, align 8
  %4 = alloca [4 x ptr], align 16
  %5 = alloca [4 x i32], align 16
  %6 = alloca i32, align 4
  %7 = alloca i32, align 4
  %8 = alloca i32, align 4
  %9 = alloca i32, align 4
  %10 = alloca i32, align 4
  store ptr %0, ptr %3, align 8, !tbaa !22
  call void @llvm.lifetime.start.p0(i64 32, ptr %4) #12
  call void @llvm.memset.p0.i64(ptr align 16 %4, i8 0, i64 32, i1 false)
  call void @llvm.lifetime.start.p0(i64 16, ptr %5) #12
  call void @llvm.lifetime.start.p0(i64 4, ptr %6) #12
  call void @llvm.lifetime.start.p0(i64 4, ptr %7) #12
  call void @llvm.lifetime.start.p0(i64 4, ptr %8) #12
  call void @llvm.lifetime.start.p0(i64 4, ptr %9) #12
  %11 = getelementptr inbounds [4 x ptr], ptr %4, i64 0, i64 0
  %12 = getelementptr inbounds [4 x i32], ptr %5, i64 0, i64 0
  %13 = load ptr, ptr %3, align 8, !tbaa !22
  %14 = getelementptr inbounds nuw %struct.ShowCQTContext, ptr %13, i32 0, i32 70
  %15 = load ptr, ptr %14, align 8, !tbaa !104
  %16 = load ptr, ptr %3, align 8, !tbaa !22
  %17 = getelementptr inbounds nuw %struct.ShowCQTContext, ptr %16, i32 0, i32 1
  %18 = load ptr, ptr %17, align 8, !tbaa !24
  %19 = call i32 @ff_load_image(ptr noundef %11, ptr noundef %12, ptr noundef %7, ptr noundef %8, ptr noundef %6, ptr noundef %15, ptr noundef %18)
  store i32 %19, ptr %9, align 4, !tbaa !50
  %20 = icmp slt i32 %19, 0
  br i1 %20, label %21, label %22

21:                                               ; preds = %1
  br label %84

22:                                               ; preds = %1
  store i32 -12, ptr %9, align 4, !tbaa !50
  %23 = call ptr @av_frame_alloc()
  %24 = load ptr, ptr %3, align 8, !tbaa !22
  %25 = getelementptr inbounds nuw %struct.ShowCQTContext, ptr %24, i32 0, i32 2
  store ptr %23, ptr %25, align 8, !tbaa !121
  %26 = icmp ne ptr %23, null
  br i1 %26, label %28, label %27

27:                                               ; preds = %22
  br label %84

28:                                               ; preds = %22
  %29 = load ptr, ptr %3, align 8, !tbaa !22
  %30 = getelementptr inbounds nuw %struct.ShowCQTContext, ptr %29, i32 0, i32 2
  %31 = load ptr, ptr %30, align 8, !tbaa !121
  %32 = getelementptr inbounds nuw %struct.AVFrame, ptr %31, i32 0, i32 0
  %33 = getelementptr inbounds [8 x ptr], ptr %32, i64 0, i64 0
  %34 = load ptr, ptr %3, align 8, !tbaa !22
  %35 = getelementptr inbounds nuw %struct.ShowCQTContext, ptr %34, i32 0, i32 2
  %36 = load ptr, ptr %35, align 8, !tbaa !121
  %37 = getelementptr inbounds nuw %struct.AVFrame, ptr %36, i32 0, i32 1
  %38 = getelementptr inbounds [8 x i32], ptr %37, i64 0, i64 0
  %39 = load ptr, ptr %3, align 8, !tbaa !22
  %40 = getelementptr inbounds nuw %struct.ShowCQTContext, ptr %39, i32 0, i32 47
  %41 = load i32, ptr %40, align 8, !tbaa !36
  %42 = load ptr, ptr %3, align 8, !tbaa !22
  %43 = getelementptr inbounds nuw %struct.ShowCQTContext, ptr %42, i32 0, i32 51
  %44 = load i32, ptr %43, align 4, !tbaa !38
  %45 = load ptr, ptr %3, align 8, !tbaa !22
  %46 = getelementptr inbounds nuw %struct.ShowCQTContext, ptr %45, i32 0, i32 4
  %47 = load i32, ptr %46, align 8, !tbaa !74
  %48 = call i32 @convert_axis_pixel_format(i32 noundef %47)
  %49 = getelementptr inbounds [4 x ptr], ptr %4, i64 0, i64 0
  %50 = getelementptr inbounds [4 x i32], ptr %5, i64 0, i64 0
  %51 = load i32, ptr %7, align 4, !tbaa !50
  %52 = load i32, ptr %8, align 4, !tbaa !50
  %53 = load i32, ptr %6, align 4, !tbaa !50
  %54 = load ptr, ptr %3, align 8, !tbaa !22
  %55 = getelementptr inbounds nuw %struct.ShowCQTContext, ptr %54, i32 0, i32 1
  %56 = load ptr, ptr %55, align 8, !tbaa !24
  %57 = call i32 @ff_scale_image(ptr noundef %33, ptr noundef %38, i32 noundef %41, i32 noundef %44, i32 noundef %48, ptr noundef %49, ptr noundef %50, i32 noundef %51, i32 noundef %52, i32 noundef %53, ptr noundef %56)
  store i32 %57, ptr %9, align 4, !tbaa !50
  %58 = icmp slt i32 %57, 0
  br i1 %58, label %59, label %60

59:                                               ; preds = %28
  br label %84

60:                                               ; preds = %28
  %61 = load ptr, ptr %3, align 8, !tbaa !22
  %62 = getelementptr inbounds nuw %struct.ShowCQTContext, ptr %61, i32 0, i32 47
  %63 = load i32, ptr %62, align 8, !tbaa !36
  %64 = load ptr, ptr %3, align 8, !tbaa !22
  %65 = getelementptr inbounds nuw %struct.ShowCQTContext, ptr %64, i32 0, i32 2
  %66 = load ptr, ptr %65, align 8, !tbaa !121
  %67 = getelementptr inbounds nuw %struct.AVFrame, ptr %66, i32 0, i32 3
  store i32 %63, ptr %67, align 8, !tbaa !160
  %68 = load ptr, ptr %3, align 8, !tbaa !22
  %69 = getelementptr inbounds nuw %struct.ShowCQTContext, ptr %68, i32 0, i32 51
  %70 = load i32, ptr %69, align 4, !tbaa !38
  %71 = load ptr, ptr %3, align 8, !tbaa !22
  %72 = getelementptr inbounds nuw %struct.ShowCQTContext, ptr %71, i32 0, i32 2
  %73 = load ptr, ptr %72, align 8, !tbaa !121
  %74 = getelementptr inbounds nuw %struct.AVFrame, ptr %73, i32 0, i32 4
  store i32 %70, ptr %74, align 4, !tbaa !154
  %75 = load ptr, ptr %3, align 8, !tbaa !22
  %76 = getelementptr inbounds nuw %struct.ShowCQTContext, ptr %75, i32 0, i32 4
  %77 = load i32, ptr %76, align 8, !tbaa !74
  %78 = call i32 @convert_axis_pixel_format(i32 noundef %77)
  %79 = load ptr, ptr %3, align 8, !tbaa !22
  %80 = getelementptr inbounds nuw %struct.ShowCQTContext, ptr %79, i32 0, i32 2
  %81 = load ptr, ptr %80, align 8, !tbaa !121
  %82 = getelementptr inbounds nuw %struct.AVFrame, ptr %81, i32 0, i32 6
  store i32 %78, ptr %82, align 4, !tbaa !149
  %83 = getelementptr inbounds [4 x ptr], ptr %4, i64 0, i64 0
  call void @av_freep(ptr noundef %83)
  store i32 0, ptr %2, align 4
  store i32 1, ptr %10, align 4
  br label %89

84:                                               ; preds = %59, %27, %21
  %85 = load ptr, ptr %3, align 8, !tbaa !22
  %86 = getelementptr inbounds nuw %struct.ShowCQTContext, ptr %85, i32 0, i32 2
  call void @av_frame_free(ptr noundef %86)
  %87 = getelementptr inbounds [4 x ptr], ptr %4, i64 0, i64 0
  call void @av_freep(ptr noundef %87)
  %88 = load i32, ptr %9, align 4, !tbaa !50
  store i32 %88, ptr %2, align 4
  store i32 1, ptr %10, align 4
  br label %89

89:                                               ; preds = %84, %60
  call void @llvm.lifetime.end.p0(i64 4, ptr %9) #12
  call void @llvm.lifetime.end.p0(i64 4, ptr %8) #12
  call void @llvm.lifetime.end.p0(i64 4, ptr %7) #12
  call void @llvm.lifetime.end.p0(i64 4, ptr %6) #12
  call void @llvm.lifetime.end.p0(i64 16, ptr %5) #12
  call void @llvm.lifetime.end.p0(i64 32, ptr %4) #12
  %90 = load i32, ptr %2, align 4
  ret i32 %90
}