; Function Attrs: nounwind uwtable
define internal fastcc range(i32 -2147483648, 1) i32 @init_axis_from_file(ptr noundef %0) unnamed_addr #1 {
  %2 = alloca [4 x ptr], align 16
  %3 = alloca [4 x i32], align 16
  %4 = alloca i32, align 4
  %5 = alloca i32, align 4
  %6 = alloca i32, align 4
  call void @llvm.lifetime.start.p0(i64 32, ptr nonnull %2) #15
  call void @llvm.memset.p0.i64(ptr noundef nonnull align 16 dereferenceable(32) %2, i8 0, i64 32, i1 false)
  call void @llvm.lifetime.start.p0(i64 16, ptr nonnull %3) #15
  call void @llvm.lifetime.start.p0(i64 4, ptr nonnull %4) #15
  call void @llvm.lifetime.start.p0(i64 4, ptr nonnull %5) #15
  call void @llvm.lifetime.start.p0(i64 4, ptr nonnull %6) #15
  %7 = getelementptr inbounds nuw i8, ptr %0, i64 528
  %8 = load ptr, ptr %7, align 8, !tbaa !111
  %9 = getelementptr inbounds nuw i8, ptr %0, i64 8
  %10 = load ptr, ptr %9, align 8, !tbaa !20
  %11 = call i32 @ff_load_image(ptr noundef nonnull %2, ptr noundef nonnull %3, ptr noundef nonnull %5, ptr noundef nonnull %6, ptr noundef nonnull %4, ptr noundef %8, ptr noundef %10) #15
  %12 = icmp slt i32 %11, 0
  br i1 %12, label %42, label %13

13:                                               ; preds = %1
  %14 = call ptr @av_frame_alloc() #15
  %15 = getelementptr inbounds nuw i8, ptr %0, i64 16
  store ptr %14, ptr %15, align 8, !tbaa !128
  %.not = icmp eq ptr %14, null
  br i1 %.not, label %42, label %16

16:                                               ; preds = %13
  %17 = getelementptr inbounds nuw i8, ptr %14, i64 64
  %18 = getelementptr inbounds nuw i8, ptr %0, i64 384
  %19 = load i32, ptr %18, align 8, !tbaa !33
  %20 = getelementptr inbounds nuw i8, ptr %0, i64 404
  %21 = load i32, ptr %20, align 4, !tbaa !35
  %22 = getelementptr inbounds nuw i8, ptr %0, i64 32
  %23 = load i32, ptr %22, align 8, !tbaa !65
  %24 = icmp ult i32 %23, 6
  %switch.maskindex = trunc i32 %23 to i8
  %switch.shifted = lshr i8 53, %switch.maskindex
  %switch.lobit = trunc i8 %switch.shifted to i1
  %or.cond = select i1 %24, i1 %switch.lobit, i1 false
  br i1 %or.cond, label %switch.lookup, label %convert_axis_pixel_format.exit

switch.lookup:                                    ; preds = %16
  %25 = zext nneg i32 %23 to i64
  %switch.gep = getelementptr inbounds nuw [6 x i32], ptr @switch.table.init_axis_from_font.7, i64 0, i64 %25
  %switch.load = load i32, ptr %switch.gep, align 4
  br label %convert_axis_pixel_format.exit

convert_axis_pixel_format.exit:                   ; preds = %switch.lookup, %16
  %.0.i = phi i32 [ %23, %16 ], [ %switch.load, %switch.lookup ]
  %26 = load i32, ptr %5, align 4, !tbaa !143
  %27 = load i32, ptr %6, align 4, !tbaa !143
  %28 = load i32, ptr %4, align 4, !tbaa !143
  %29 = load ptr, ptr %9, align 8, !tbaa !20
  %30 = call i32 @ff_scale_image(ptr noundef nonnull %14, ptr noundef nonnull %17, i32 noundef %19, i32 noundef %21, i32 noundef %.0.i, ptr noundef nonnull %2, ptr noundef nonnull %3, i32 noundef %26, i32 noundef %27, i32 noundef %28, ptr noundef %29) #15
  %31 = icmp slt i32 %30, 0
  br i1 %31, label %42, label %32

32:                                               ; preds = %convert_axis_pixel_format.exit
  %33 = load i32, ptr %18, align 8, !tbaa !33
  %34 = load ptr, ptr %15, align 8, !tbaa !128
  %35 = getelementptr inbounds nuw i8, ptr %34, i64 104
  store i32 %33, ptr %35, align 8, !tbaa !147
  %36 = load i32, ptr %20, align 4, !tbaa !35
  %37 = getelementptr inbounds nuw i8, ptr %34, i64 108
  store i32 %36, ptr %37, align 4, !tbaa !142
  %38 = load i32, ptr %22, align 8, !tbaa !65
  %39 = icmp ult i32 %38, 6
  %switch.maskindex25 = trunc i32 %38 to i8
  %switch.shifted26 = lshr i8 53, %switch.maskindex25
  %switch.lobit27 = trunc i8 %switch.shifted26 to i1
  %or.cond30 = select i1 %39, i1 %switch.lobit27, i1 false
  br i1 %or.cond30, label %switch.lookup24, label %convert_axis_pixel_format.exit22

switch.lookup24:                                  ; preds = %32
  %40 = zext nneg i32 %38 to i64
  %switch.gep28 = getelementptr inbounds nuw [6 x i32], ptr @switch.table.init_axis_from_font.7, i64 0, i64 %40
  %switch.load29 = load i32, ptr %switch.gep28, align 4
  br label %convert_axis_pixel_format.exit22

convert_axis_pixel_format.exit22:                 ; preds = %switch.lookup24, %32
  %.0.i21 = phi i32 [ %38, %32 ], [ %switch.load29, %switch.lookup24 ]
  %41 = getelementptr inbounds nuw i8, ptr %34, i64 116
  store i32 %.0.i21, ptr %41, align 4, !tbaa !137
  br label %44

42:                                               ; preds = %convert_axis_pixel_format.exit, %13, %1
  %.0 = phi i32 [ %11, %1 ], [ %30, %convert_axis_pixel_format.exit ], [ -12, %13 ]
  %43 = getelementptr inbounds nuw i8, ptr %0, i64 16
  call void @av_frame_free(ptr noundef nonnull %43) #15
  br label %44

44:                                               ; preds = %42, %convert_axis_pixel_format.exit22
  %.017 = phi i32 [ %.0, %42 ], [ 0, %convert_axis_pixel_format.exit22 ]
  call void @av_freep(ptr noundef nonnull %2) #15
  call void @llvm.lifetime.end.p0(i64 4, ptr nonnull %6) #15
  call void @llvm.lifetime.end.p0(i64 4, ptr nonnull %5) #15
  call void @llvm.lifetime.end.p0(i64 4, ptr nonnull %4) #15
  call void @llvm.lifetime.end.p0(i64 16, ptr nonnull %3) #15
  call void @llvm.lifetime.end.p0(i64 32, ptr nonnull %2) #15
  ret i32 %.017
}